; ModuleID = 'source-C-CXX/57/1214.cpp'
source_filename = "source-C-CXX/57/1214.cpp"
target datalayout = "e-m:e-p270:32:32-p271:32:32-p272:64:64-i64:64-f80:128-n8:16:32:64-S128"
target triple = "x86_64-pc-linux-gnu"

%"class.std::ios_base::Init" = type { i8 }
%"class.std::basic_istream" = type { i32 (...)**, i64, %"class.std::basic_ios" }
%"class.std::basic_ios" = type { %"class.std::ios_base", %"class.std::basic_ostream"*, i8, i8, %"class.std::basic_streambuf"*, %"class.std::ctype"*, %"class.std::num_put"*, %"class.std::num_get"* }
%"class.std::ios_base" = type { i32 (...)**, i64, i64, i32, i32, i32, %"struct.std::ios_base::_Callback_list"*, %"struct.std::ios_base::_Words", [8 x %"struct.std::ios_base::_Words"], i32, %"struct.std::ios_base::_Words"*, %"class.std::locale" }
%"struct.std::ios_base::_Callback_list" = type { %"struct.std::ios_base::_Callback_list"*, void (i32, %"class.std::ios_base"*, i32)*, i32, i32 }
%"struct.std::ios_base::_Words" = type { i8*, i64 }
%"class.std::locale" = type { %"class.std::locale::_Impl"* }
%"class.std::locale::_Impl" = type { i32, %"class.std::locale::facet"**, i64, %"class.std::locale::facet"**, i8** }
%"class.std::locale::facet" = type <{ i32 (...)**, i32, [4 x i8] }>
%"class.std::basic_ostream" = type { i32 (...)**, %"class.std::basic_ios" }
%"class.std::basic_streambuf" = type { i32 (...)**, i8*, i8*, i8*, i8*, i8*, i8*, %"class.std::locale" }
%"class.std::ctype" = type <{ %"class.std::locale::facet.base", [4 x i8], %struct.__locale_struct*, i8, [7 x i8], i32*, i32*, i16*, i8, [256 x i8], [256 x i8], i8, [6 x i8] }>
%"class.std::locale::facet.base" = type <{ i32 (...)**, i32 }>
%struct.__locale_struct = type { [13 x %struct.__locale_data*], i16*, i32*, i32*, [13 x i8*] }
%struct.__locale_data = type opaque
%"class.std::num_put" = type { %"class.std::locale::facet.base", [4 x i8] }
%"class.std::num_get" = type { %"class.std::locale::facet.base", [4 x i8] }

@_ZStL8__ioinit = internal global %"class.std::ios_base::Init" zeroinitializer, align 1
@__dso_handle = external hidden global i8
@_ZSt3cin = external global %"class.std::basic_istream", align 8
@_ZSt4cout = external global %"class.std::basic_ostream", align 8
@llvm.global_ctors = appending global [1 x { i32, void ()*, i8* }] [{ i32, void ()*, i8* } { i32 65535, void ()* @_GLOBAL__sub_I_1214.cpp, i8* null }]

declare void @_ZNSt8ios_base4InitC1Ev(%"class.std::ios_base::Init"* nonnull align 1 dereferenceable(1)) unnamed_addr #0

; Function Attrs: nounwind
declare void @_ZNSt8ios_base4InitD1Ev(%"class.std::ios_base::Init"* nonnull align 1 dereferenceable(1)) unnamed_addr #1

; Function Attrs: nofree nounwind
declare i32 @__cxa_atexit(void (i8*)*, i8*, i8*) local_unnamed_addr #2

; Function Attrs: mustprogress norecurse sspstrong uwtable
define dso_local i32 @main() local_unnamed_addr #3 {
  %1 = alloca i32, align 4
  %2 = alloca [81 x i8], align 16
  %3 = bitcast i32* %1 to i8*
  call void @llvm.lifetime.start.p0i8(i64 4, i8* nonnull %3) #7
  %4 = getelementptr inbounds [81 x i8], [81 x i8]* %2, i64 0, i64 0
  call void @llvm.lifetime.start.p0i8(i64 81, i8* nonnull %4) #7
  %5 = call nonnull align 8 dereferenceable(16) %"class.std::basic_istream"* @_ZNSirsERi(%"class.std::basic_istream"* nonnull align 8 dereferenceable(16) @_ZSt3cin, i32* nonnull align 4 dereferenceable(4) %1)
  %6 = call i32 @_ZNSi3getEv(%"class.std::basic_istream"* nonnull align 8 dereferenceable(16) @_ZSt3cin)
  %7 = getelementptr inbounds [81 x i8], [81 x i8]* %2, i64 0, i64 1
  %8 = load i32, i32* %1, align 4, !tbaa !5
  %9 = icmp slt i32 %8, 1
  br i1 %9, label %138, label %10

10:                                               ; preds = %0, %132
  %11 = phi i32 [ %135, %132 ], [ 1, %0 ]
  %12 = load i8*, i8** bitcast (%"class.std::basic_istream"* @_ZSt3cin to i8**), align 8, !tbaa !9
  %13 = getelementptr i8, i8* %12, i64 -24
  %14 = bitcast i8* %13 to i64*
  %15 = load i64, i64* %14, align 8
  %16 = add nsw i64 %15, 240
  %17 = getelementptr inbounds i8, i8* bitcast (%"class.std::basic_istream"* @_ZSt3cin to i8*), i64 %16
  %18 = bitcast i8* %17 to %"class.std::ctype"**
  %19 = load %"class.std::ctype"*, %"class.std::ctype"** %18, align 8, !tbaa !11
  %20 = icmp eq %"class.std::ctype"* %19, null
  br i1 %20, label %21, label %22

21:                                               ; preds = %10
  call void @_ZSt16__throw_bad_castv() #8
  unreachable

22:                                               ; preds = %10
  %23 = getelementptr inbounds %"class.std::ctype", %"class.std::ctype"* %19, i64 0, i32 8
  %24 = load i8, i8* %23, align 8, !tbaa !15
  %25 = icmp eq i8 %24, 0
  br i1 %25, label %29, label %26

26:                                               ; preds = %22
  %27 = getelementptr inbounds %"class.std::ctype", %"class.std::ctype"* %19, i64 0, i32 9, i64 10
  %28 = load i8, i8* %27, align 1, !tbaa !17
  br label %35

29:                                               ; preds = %22
  call void @_ZNKSt5ctypeIcE13_M_widen_initEv(%"class.std::ctype"* nonnull align 8 dereferenceable(570) %19)
  %30 = bitcast %"class.std::ctype"* %19 to i8 (%"class.std::ctype"*, i8)***
  %31 = load i8 (%"class.std::ctype"*, i8)**, i8 (%"class.std::ctype"*, i8)*** %30, align 8, !tbaa !9
  %32 = getelementptr inbounds i8 (%"class.std::ctype"*, i8)*, i8 (%"class.std::ctype"*, i8)** %31, i64 6
  %33 = load i8 (%"class.std::ctype"*, i8)*, i8 (%"class.std::ctype"*, i8)** %32, align 8
  %34 = call signext i8 %33(%"class.std::ctype"* nonnull align 8 dereferenceable(570) %19, i8 signext 10)
  br label %35

35:                                               ; preds = %26, %29
  %36 = phi i8 [ %28, %26 ], [ %34, %29 ]
  %37 = call nonnull align 8 dereferenceable(16) %"class.std::basic_istream"* @_ZNSi7getlineEPclc(%"class.std::basic_istream"* nonnull align 8 dereferenceable(16) @_ZSt3cin, i8* nonnull %4, i64 81, i8 signext %36)
  %38 = load i8, i8* %4, align 16, !tbaa !17
  %39 = add i8 %38, -97
  %40 = icmp ult i8 %39, 26
  br i1 %40, label %76, label %41

41:                                               ; preds = %35
  %42 = add i8 %38, -65
  %43 = icmp ult i8 %42, 26
  %44 = icmp eq i8 %38, 95
  %45 = or i1 %44, %43
  br i1 %45, label %76, label %46

46:                                               ; preds = %41
  %47 = call nonnull align 8 dereferenceable(8) %"class.std::basic_ostream"* @_ZNSolsEi(%"class.std::basic_ostream"* nonnull align 8 dereferenceable(8) @_ZSt4cout, i32 0)
  %48 = bitcast %"class.std::basic_ostream"* %47 to i8**
  %49 = load i8*, i8** %48, align 8, !tbaa !9
  %50 = getelementptr i8, i8* %49, i64 -24
  %51 = bitcast i8* %50 to i64*
  %52 = load i64, i64* %51, align 8
  %53 = bitcast %"class.std::basic_ostream"* %47 to i8*
  %54 = add nsw i64 %52, 240
  %55 = getelementptr inbounds i8, i8* %53, i64 %54
  %56 = bitcast i8* %55 to %"class.std::ctype"**
  %57 = load %"class.std::ctype"*, %"class.std::ctype"** %56, align 8, !tbaa !11
  %58 = icmp eq %"class.std::ctype"* %57, null
  br i1 %58, label %59, label %60

59:                                               ; preds = %46
  call void @_ZSt16__throw_bad_castv() #8
  unreachable

60:                                               ; preds = %46
  %61 = getelementptr inbounds %"class.std::ctype", %"class.std::ctype"* %57, i64 0, i32 8
  %62 = load i8, i8* %61, align 8, !tbaa !15
  %63 = icmp eq i8 %62, 0
  br i1 %63, label %67, label %64

64:                                               ; preds = %60
  %65 = getelementptr inbounds %"class.std::ctype", %"class.std::ctype"* %57, i64 0, i32 9, i64 10
  %66 = load i8, i8* %65, align 1, !tbaa !17
  br label %73

67:                                               ; preds = %60
  call void @_ZNKSt5ctypeIcE13_M_widen_initEv(%"class.std::ctype"* nonnull align 8 dereferenceable(570) %57)
  %68 = bitcast %"class.std::ctype"* %57 to i8 (%"class.std::ctype"*, i8)***
  %69 = load i8 (%"class.std::ctype"*, i8)**, i8 (%"class.std::ctype"*, i8)*** %68, align 8, !tbaa !9
  %70 = getelementptr inbounds i8 (%"class.std::ctype"*, i8)*, i8 (%"class.std::ctype"*, i8)** %69, i64 6
  %71 = load i8 (%"class.std::ctype"*, i8)*, i8 (%"class.std::ctype"*, i8)** %70, align 8
  %72 = call signext i8 %71(%"class.std::ctype"* nonnull align 8 dereferenceable(570) %57, i8 signext 10)
  br label %73

73:                                               ; preds = %64, %67
  %74 = phi i8 [ %66, %64 ], [ %72, %67 ]
  %75 = call nonnull align 8 dereferenceable(8) %"class.std::basic_ostream"* @_ZNSo3putEc(%"class.std::basic_ostream"* nonnull align 8 dereferenceable(8) %47, i8 signext %74)
  br label %132

76:                                               ; preds = %41, %35
  %77 = load i8, i8* %7, align 1, !tbaa !17
  %78 = icmp eq i8 %77, 0
  br i1 %78, label %101, label %79

79:                                               ; preds = %76, %93
  %80 = phi i64 [ %95, %93 ], [ 1, %76 ]
  %81 = phi i8 [ %97, %93 ], [ %77, %76 ]
  %82 = add i8 %81, -97
  %83 = icmp ult i8 %82, 26
  br i1 %83, label %93, label %84

84:                                               ; preds = %79
  %85 = add i8 %81, -65
  %86 = icmp ult i8 %85, 26
  %87 = icmp eq i8 %81, 95
  %88 = or i1 %87, %86
  br i1 %88, label %93, label %89

89:                                               ; preds = %84
  %90 = add i8 %81, -48
  %91 = icmp ult i8 %90, 10
  %92 = zext i1 %91 to i32
  br label %93

93:                                               ; preds = %89, %84, %79
  %94 = phi i32 [ 1, %79 ], [ 1, %84 ], [ %92, %89 ]
  %95 = add nuw i64 %80, 1
  %96 = getelementptr inbounds [81 x i8], [81 x i8]* %2, i64 0, i64 %95
  %97 = load i8, i8* %96, align 1, !tbaa !17
  %98 = icmp ne i8 %97, 0
  %99 = icmp ne i32 %94, 0
  %100 = and i1 %99, %98
  br i1 %100, label %79, label %101, !llvm.loop !18

101:                                              ; preds = %93, %76
  %102 = phi i32 [ 1, %76 ], [ %94, %93 ]
  %103 = call nonnull align 8 dereferenceable(8) %"class.std::basic_ostream"* @_ZNSolsEi(%"class.std::basic_ostream"* nonnull align 8 dereferenceable(8) @_ZSt4cout, i32 %102)
  %104 = bitcast %"class.std::basic_ostream"* %103 to i8**
  %105 = load i8*, i8** %104, align 8, !tbaa !9
  %106 = getelementptr i8, i8* %105, i64 -24
  %107 = bitcast i8* %106 to i64*
  %108 = load i64, i64* %107, align 8
  %109 = bitcast %"class.std::basic_ostream"* %103 to i8*
  %110 = add nsw i64 %108, 240
  %111 = getelementptr inbounds i8, i8* %109, i64 %110
  %112 = bitcast i8* %111 to %"class.std::ctype"**
  %113 = load %"class.std::ctype"*, %"class.std::ctype"** %112, align 8, !tbaa !11
  %114 = icmp eq %"class.std::ctype"* %113, null
  br i1 %114, label %115, label %116

115:                                              ; preds = %101
  call void @_ZSt16__throw_bad_castv() #8
  unreachable

116:                                              ; preds = %101
  %117 = getelementptr inbounds %"class.std::ctype", %"class.std::ctype"* %113, i64 0, i32 8
  %118 = load i8, i8* %117, align 8, !tbaa !15
  %119 = icmp eq i8 %118, 0
  br i1 %119, label %123, label %120

120:                                              ; preds = %116
  %121 = getelementptr inbounds %"class.std::ctype", %"class.std::ctype"* %113, i64 0, i32 9, i64 10
  %122 = load i8, i8* %121, align 1, !tbaa !17
  br label %129

123:                                              ; preds = %116
  call void @_ZNKSt5ctypeIcE13_M_widen_initEv(%"class.std::ctype"* nonnull align 8 dereferenceable(570) %113)
  %124 = bitcast %"class.std::ctype"* %113 to i8 (%"class.std::ctype"*, i8)***
  %125 = load i8 (%"class.std::ctype"*, i8)**, i8 (%"class.std::ctype"*, i8)*** %124, align 8, !tbaa !9
  %126 = getelementptr inbounds i8 (%"class.std::ctype"*, i8)*, i8 (%"class.std::ctype"*, i8)** %125, i64 6
  %127 = load i8 (%"class.std::ctype"*, i8)*, i8 (%"class.std::ctype"*, i8)** %126, align 8
  %128 = call signext i8 %127(%"class.std::ctype"* nonnull align 8 dereferenceable(570) %113, i8 signext 10)
  br label %129

129:                                              ; preds = %120, %123
  %130 = phi i8 [ %122, %120 ], [ %128, %123 ]
  %131 = call nonnull align 8 dereferenceable(8) %"class.std::basic_ostream"* @_ZNSo3putEc(%"class.std::basic_ostream"* nonnull align 8 dereferenceable(8) %103, i8 signext %130)
  br label %132

132:                                              ; preds = %129, %73
  %133 = phi %"class.std::basic_ostream"* [ %131, %129 ], [ %75, %73 ]
  %134 = call nonnull align 8 dereferenceable(8) %"class.std::basic_ostream"* @_ZNSo5flushEv(%"class.std::basic_ostream"* nonnull align 8 dereferenceable(8) %133)
  %135 = add nuw nsw i32 %11, 1
  %136 = load i32, i32* %1, align 4, !tbaa !5
  %137 = icmp slt i32 %11, %136
  br i1 %137, label %10, label %138, !llvm.loop !20

138:                                              ; preds = %132, %0
  call void @llvm.lifetime.end.p0i8(i64 81, i8* nonnull %4) #7
  call void @llvm.lifetime.end.p0i8(i64 4, i8* nonnull %3) #7
  ret i32 0
}

; Function Attrs: argmemonly mustprogress nofree nosync nounwind willreturn
declare void @llvm.lifetime.start.p0i8(i64 immarg, i8* nocapture) #4

declare nonnull align 8 dereferenceable(16) %"class.std::basic_istream"* @_ZNSirsERi(%"class.std::basic_istream"* nonnull align 8 dereferenceable(16), i32* nonnull align 4 dereferenceable(4)) local_unnamed_addr #0

declare i32 @_ZNSi3getEv(%"class.std::basic_istream"* nonnull align 8 dereferenceable(16)) local_unnamed_addr #0

declare nonnull align 8 dereferenceable(8) %"class.std::basic_ostream"* @_ZNSolsEi(%"class.std::basic_ostream"* nonnull align 8 dereferenceable(8), i32) local_unnamed_addr #0

; Function Attrs: argmemonly mustprogress nofree nosync nounwind willreturn
declare void @llvm.lifetime.end.p0i8(i64 immarg, i8* nocapture) #4

declare nonnull align 8 dereferenceable(16) %"class.std::basic_istream"* @_ZNSi7getlineEPclc(%"class.std::basic_istream"* nonnull align 8 dereferenceable(16), i8*, i64, i8 signext) local_unnamed_addr #0

; Function Attrs: noreturn
declare void @_ZSt16__throw_bad_castv() local_unnamed_addr #5

declare void @_ZNKSt5ctypeIcE13_M_widen_initEv(%"class.std::ctype"* nonnull align 8 dereferenceable(570)) local_unnamed_addr #0

declare nonnull align 8 dereferenceable(8) %"class.std::basic_ostream"* @_ZNSo3putEc(%"class.std::basic_ostream"* nonnull align 8 dereferenceable(8), i8 signext) local_unnamed_addr #0

declare nonnull align 8 dereferenceable(8) %"class.std::basic_ostream"* @_ZNSo5flushEv(%"class.std::basic_ostream"* nonnull align 8 dereferenceable(8)) local_unnamed_addr #0

; Function Attrs: sspstrong uwtable
define internal void @_GLOBAL__sub_I_1214.cpp() #6 section ".text.startup" {
  tail call void @_ZNSt8ios_base4InitC1Ev(%"class.std::ios_base::Init"* nonnull align 1 dereferenceable(1) @_ZStL8__ioinit)
  %1 = tail call i32 @__cxa_atexit(void (i8*)* bitcast (void (%"class.std::ios_base::Init"*)* @_ZNSt8ios_base4InitD1Ev to void (i8*)*), i8* getelementptr inbounds (%"class.std::ios_base::Init", %"class.std::ios_base::Init"* @_ZStL8__ioinit, i64 0, i32 0), i8* nonnull @__dso_handle) #7
  ret void
}


!llvm.module.flags = !{!0, !1, !2, !3}
!llvm.ident = !{!4}

!0 = !{i32 1, !"wchar_size", i32 4}
!1 = !{i32 7, !"PIC Level", i32 2}
!2 = !{i32 7, !"PIE Level", i32 2}
!3 = !{i32 7, !"uwtable", i32 1}
!4 = !{!"clang version 13.0.0"}
!5 = !{!6, !6, i64 0}
!6 = !{!"int", !7, i64 0}
!7 = !{!"omnipotent char", !8, i64 0}
!8 = !{!"Simple C++ TBAA"}
!9 = !{!10, !10, i64 0}
!10 = !{!"vtable pointer", !8, i64 0}
!11 = !{!12, !13, i64 240}
!12 = !{!"_ZTSSt9basic_iosIcSt11char_traitsIcEE", !13, i64 216, !7, i64 224, !14, i64 225, !13, i64 232, !13, i64 240, !13, i64 248, !13, i64 256}
!13 = !{!"any pointer", !7, i64 0}
!14 = !{!"bool", !7, i64 0}
!15 = !{!16, !7, i64 56}
!16 = !{!"_ZTSSt5ctypeIcE", !13, i64 16, !14, i64 24, !13, i64 32, !13, i64 40, !13, i64 48, !7, i64 56, !7, i64 57, !7, i64 313, !7, i64 569}
!17 = !{!7, !7, i64 0}
!18 = distinct !{!18, !19}
!19 = !{!"llvm.loop.mustprogress"}
!20 = distinct !{!20, !19}
